target datalayout = "e-m:e-p270:32:32-p271:32:32-p272:64:64-i64:64-i128:128-f80:128-n8:16:32:64-S128"
target triple = "x86_64-pc-linux-gnu"

%struct.sview_config_t = type { ptr, ptr, ptr, ptr, ptr, ptr, ptr, i16, i16, i8, i16, i32, i32, i32, i8, i32, i32, i32, i32, [10 x ptr], [10 x %struct.page_opts_t], [10 x i8], i16, i8, i8, i8, i8, i16, i32 }
%struct.page_opts_t = type { ptr, i8, ptr, ptr }

@.str.50 = private unnamed_addr constant [4 x i8] c"Job\00", align 1
@.str.51 = private unnamed_addr constant [10 x i8] c"Partition\00", align 1
@.str.52 = private unnamed_addr constant [12 x i8] c"Reservation\00", align 1
@.str.53 = private unnamed_addr constant [12 x i8] c"BurstBuffer\00", align 1
@.str.54 = private unnamed_addr constant [5 x i8] c"Node\00", align 1
@.str.55 = private unnamed_addr constant [9 x i8] c"Frontend\00", align 1
@.str.61 = private unnamed_addr constant [2 x i8] c",\00", align 1

; Function Attrs: nounwind uwtable
define dso_local ptr @page_to_str(i32 noundef %0) #0 {
  %2 = alloca ptr, align 8
  %3 = alloca i32, align 4
  store i32 %0, ptr %3, align 4
  %4 = load i32, ptr %3, align 4
  switch i32 %4, label %11 [
    i32 0, label %5
    i32 1, label %6
    i32 2, label %7
    i32 3, label %8
    i32 4, label %9
    i32 5, label %10
  ]

5:                                                ; preds = %1
  store ptr @.str.50, ptr %2, align 8
  br label %12

6:                                                ; preds = %1
  store ptr @.str.51, ptr %2, align 8
  br label %12

7:                                                ; preds = %1
  store ptr @.str.52, ptr %2, align 8
  br label %12

8:                                                ; preds = %1
  store ptr @.str.53, ptr %2, align 8
  br label %12

9:                                                ; preds = %1
  store ptr @.str.54, ptr %2, align 8
  br label %12

10:                                               ; preds = %1
  store ptr @.str.55, ptr %2, align 8
  br label %12

11:                                               ; preds = %1
  store ptr null, ptr %2, align 8
  br label %12

12:                                               ; preds = %11, %10, %9, %8, %7, %6, %5
  %13 = load ptr, ptr %2, align 8
  ret ptr %13
}

; Function Attrs: nounwind uwtable
define dso_local ptr @visible_to_str(ptr noundef %0) #0 {
  %2 = alloca ptr, align 8
  %3 = alloca ptr, align 8
  %4 = alloca i32, align 4
  store ptr %0, ptr %2, align 8
  call void @llvm.lifetime.start.p0(i64 8, ptr %3) #11
  store ptr null, ptr %3, align 8
  call void @llvm.lifetime.start.p0(i64 4, ptr %4) #11
  store i32 0, ptr %4, align 4
  br label %5

5:                                                ; preds = %27, %1
  %6 = load i32, ptr %4, align 4
  %7 = icmp slt i32 %6, 10
  br i1 %7, label %8, label %30

8:                                                ; preds = %5
  %9 = load ptr, ptr %2, align 8
  %10 = getelementptr inbounds nuw %struct.sview_config_t, ptr %9, i32 0, i32 21
  %11 = load i32, ptr %4, align 4
  %12 = sext i32 %11 to i64
  %13 = getelementptr inbounds [10 x i8], ptr %10, i64 0, i64 %12
  %14 = load i8, ptr %13, align 1, !range !23, !noundef !24
  %15 = trunc i8 %14 to i1
  br i1 %15, label %16, label %26

16:                                               ; preds = %8
  %17 = load i32, ptr %4, align 4
  %18 = icmp ne i32 %17, 9
  br i1 %18, label %19, label %26

19:                                               ; preds = %16
  %20 = load ptr, ptr %3, align 8
  %21 = icmp ne ptr %20, null
  br i1 %21, label %22, label %23

22:                                               ; preds = %19
  call void @_xstrcat(ptr noundef %3, ptr noundef @.str.61)
  br label %23

23:                                               ; preds = %22, %19
  %24 = load i32, ptr %4, align 4
  %25 = call ptr @page_to_str(i32 noundef %24)
  call void @_xstrcat(ptr noundef %3, ptr noundef %25)
  br label %26

26:                                               ; preds = %23, %16, %8
  br label %27

27:                                               ; preds = %26
  %28 = load i32, ptr %4, align 4
  %29 = add nsw i32 %28, 1
  store i32 %29, ptr %4, align 4
  br label %5, !llvm.loop !52

30:                                               ; preds = %5
  %31 = load ptr, ptr %3, align 8
  call void @llvm.lifetime.end.p0(i64 4, ptr %4) #11
  call void @llvm.lifetime.end.p0(i64 8, ptr %3) #11
  ret ptr %31
}