; Function Attrs: nounwind uwtable
define dso_local ptr @visible_to_str(ptr noundef readonly captures(none) %0) local_unnamed_addr #2 {
  %2 = alloca ptr, align 8
  call void @llvm.lifetime.start.p0(i64 8, ptr nonnull %2) #16
  store ptr null, ptr %2, align 8
  %3 = getelementptr inbounds nuw i8, ptr %0, i64 496
  br label %4

4:                                                ; preds = %1, %14
  %indvars.iv = phi i64 [ 0, %1 ], [ %indvars.iv.next, %14 ]
  %5 = getelementptr inbounds nuw [10 x i8], ptr %3, i64 0, i64 %indvars.iv
  %6 = load i8, ptr %5, align 1, !range !21, !noundef !22
  %7 = trunc nuw i8 %6 to i1
  %8 = icmp ne i64 %indvars.iv, 9
  %or.cond = and i1 %8, %7
  br i1 %or.cond, label %9, label %14

9:                                                ; preds = %4
  %10 = load ptr, ptr %2, align 8
  %.not = icmp eq ptr %10, null
  br i1 %.not, label %12, label %11

11:                                               ; preds = %9
  call void @_xstrcat(ptr noundef nonnull %2, ptr noundef nonnull @.str.61) #16
  br label %12

12:                                               ; preds = %11, %9
  %13 = icmp samesign ult i64 %indvars.iv, 6
  br i1 %13, label %switch.lookup, label %page_to_str.exit

switch.lookup:                                    ; preds = %12
  %switch.gep = getelementptr inbounds nuw [6 x ptr], ptr @switch.table.visible_to_str, i64 0, i64 %indvars.iv
  %switch.load = load ptr, ptr %switch.gep, align 8
  br label %page_to_str.exit

page_to_str.exit:                                 ; preds = %12, %switch.lookup
  %.0.i = phi ptr [ %switch.load, %switch.lookup ], [ null, %12 ]
  call void @_xstrcat(ptr noundef nonnull %2, ptr noundef %.0.i) #16
  br label %14

14:                                               ; preds = %4, %page_to_str.exit
  %indvars.iv.next = add nuw nsw i64 %indvars.iv, 1
  %exitcond.not = icmp eq i64 %indvars.iv.next, 10
  br i1 %exitcond.not, label %15, label %4, !llvm.loop !50

15:                                               ; preds = %14
  %16 = load ptr, ptr %2, align 8
  call void @llvm.lifetime.end.p0(i64 8, ptr nonnull %2) #16
  ret ptr %16
}